(dp0
I111745024
(dp1
S'items'
p2
(lp3
sS'name'
p4
Vcvchina
p5
ssI14329889
(dp6
S'items'
p7
(lp8
sS'name'
p9
Vheartnn
p10
ssI343318530
(dp11
S'items'
p12
(lp13
sS'name'
p14
Vannagreenspan
p15
ssI15224867
(dp16
g7
(lp17
sg9
Vandersoncooper
p18
ssI6545412
(dp19
g2
(lp20
sg4
Vmartinoei
p21
ssI124087958
(dp22
g12
(lp23
sg14
VLAReviewofBooks
p24
ssI17936397
(dp25
g2
(lp26
sg4
Vblogtd
p27
ssI136316942
(dp28
g7
(lp29
sg9
Vluoxisk
p30
ssI99004419
(dp31
g2
(lp32
sg4
VHornbyLucy
p33
ssI135486484
(dp34
g7
(lp35
sg9
VDesignSparkRS
p36
ssI123762050
(dp37
g12
(lp38
sg14
Vguxin2010
p39
ssI94485526
(dp40
g7
(lp41
sg9
VA_Loneliness
p42
ssI113541144
(dp43
g7
(lp44
sg9
Vlouissimons
p45
ssI43289988
(dp46
g12
(lp47
sg14
Vpanphil
p48
ssI143638554
(dp49
g7
(lp50
sg9
VCloud9IDE
p51
ssI15527964
(dp52
g7
(lp53
sg9
VBeijingAir
p54
ssI15823891
(dp55
g7
(lp56
sg9
VTradeKing
p57
ssI35728415
(dp58
g7
(lp59
sg9
Vranyunfei
p60
ss.