(dp0
I111745024
(dp1
S'items'
p2
(lp3
sS'name'
p4
Vcvchina
p5
ssI14329889
(dp6
S'items'
p7
(lp8
sS'name'
p9
Vheartnn
p10
ssI99004419
(dp11
g2
(lp12
sg4
VHornbyLucy
p13
ssI6545412
(dp14
g2
(lp15
sg4
Vmartinoei
p16
ssI15224867
(dp17
g7
(lp18
sg9
Vandersoncooper
p19
ssI17936397
(dp20
g2
(lp21
sg4
Vblogtd
p22
ssI136316942
(dp23
g7
(lp24
sg9
Vluoxisk
p25
ssI15823891
(dp26
g7
(lp27
sg9
VTradeKing
p28
ssI135486484
(dp29
g7
(lp30
sg9
VDesignSparkRS
p31
ssI94485526
(dp32
g7
(lp33
sg9
VA_Loneliness
p34
ssI113541144
(dp35
g7
(lp36
sg9
Vlouissimons
p37
ssI143638554
(dp38
g7
(lp39
sg9
VCloud9IDE
p40
ssI15527964
(dp41
g7
(lp42
sg9
VBeijingAir
p43
ssI35728415
(dp44
g7
(lp45
sg9
Vranyunfei
p46
ss.