(dp0
I111745024
(dp1
S'items'
p2
(lp3
sS'name'
p4
Vcvchina
p5
ssI343318530
(dp6
S'items'
p7
(lp8
sS'name'
p9
Vannagreenspan
p10
ssI99004419
(dp11
g2
(lp12
sg4
VHornbyLucy
p13
ssI6545412
(dp14
g2
(lp15
sg4
Vmartinoei
p16
ssI124087958
(dp17
g7
(lp18
sg9
VLAReviewofBooks
p19
ssI43410438
(dp20
S'items'
p21
(lp22
sS'name'
p23
Vshenzhen_litie
p24
ssI5225991
(dp25
S'items'
p26
(lp27
sS'name'
p28
VTate
p29
ssI17936397
(dp30
g2
(lp31
sg4
Vblogtd
p32
ssI136316942
(dp33
S'items'
p34
(lp35
sS'name'
p36
Vluoxisk
p37
ssI151930383
(dp38
g26
(lp39
sg28
VGordonGChang
p40
ssI272890896
(dp41
g26
(lp42
sg28
Vlucy_walsh98
p43
ssI15823891
(dp44
g34
(lp45
sg36
VTradeKing
p46
ssI135486484
(dp47
g34
(lp48
sg36
VDesignSparkRS
p49
ssI94485526
(dp50
g34
(lp51
sg36
VA_Loneliness
p52
ssI113541144
(dp53
g34
(lp54
sg36
Vlouissimons
p55
ssI151532036
(dp56
g21
(lp57
sg23
V_TheWhitechapel
p58
ssI143638554
(dp59
g34
(lp60
sg36
VCloud9IDE
p61
ssI15345179
(dp62
g26
(lp63
sg28
Vchinadialogue
p64
ssI15527964
(dp65
g34
(lp66
sg36
VBeijingAir
p67
ssI35728415
(dp68
g34
(lp69
sg36
Vranyunfei
p70
ssI14329889
(dp71
g34
(lp72
sg36
Vheartnn
p73
ssI15224867
(dp74
g34
(lp75
sg36
Vandersoncooper
p76
ssI132215318
(dp77
g26
(lp78
sg28
Vcehoc14
p79
ssI20408491
(dp80
g21
(lp81
sg23
Vbirdsandfish
p82
ssI22105603
(dp83
g26
(lp84
sg28
Vnatashamitchell
p85
ssI83980802
(dp86
g21
(lp87
sg23
VTelegraphChina
p88
ssI14832654
(dp89
g26
(lp90
sg28
Vmatthew0705
p91
ssI16213648
(dp92
g26
(lp93
sg28
VacrosstheC
p94
ssI43289988
(dp95
g7
(lp96
sg9
Vpanphil
p97
ssI123762050
(dp98
g7
(lp99
sg9
Vguxin2010
p100
ssI57899028
(dp101
g26
(lp102
sg28
VChinaHush
p103
ss.